; Function Attrs: nounwind uwtable
define hidden void @zim_FilterIterator_rewind(ptr nocapture noundef readonly %0, ptr nocapture readnone %1) #0 {
  %3 = getelementptr inbounds i8, ptr %0, i64 32
  %4 = getelementptr inbounds i8, ptr %0, i64 44
  %5 = load i32, ptr %4, align 4
  %.not = icmp eq i32 %5, 0
  br i1 %.not, label %.critedge, label %6

6:                                                ; preds = %2
  tail call void @zend_wrong_parameters_none_error() #10
  %7 = load ptr, ptr getelementptr inbounds (%struct._zend_executor_globals, ptr @executor_globals, i64 0, i32 50), align 8
  %8 = icmp ne ptr %7, null
  tail call void @llvm.assume(i1 %8)
  br label %27

.critedge:                                        ; preds = %2
  %9 = load ptr, ptr %3, align 8
  %10 = getelementptr inbounds i8, ptr %9, i64 -136
  %11 = getelementptr inbounds i8, ptr %9, i64 -56
  %12 = load i32, ptr %11, align 8
  %13 = icmp eq i32 %12, -1
  br i1 %13, label %14, label %17

14:                                               ; preds = %.critedge
  tail call void (ptr, ptr, ...) @zend_throw_error(ptr noundef null, ptr noundef nonnull @.str) #10
  %15 = load ptr, ptr getelementptr inbounds (%struct._zend_executor_globals, ptr @executor_globals, i64 0, i32 50), align 8
  %16 = icmp ne ptr %15, null
  tail call void @llvm.assume(i1 %16)
  br label %27

17:                                               ; preds = %.critedge
  tail call fastcc void @spl_dual_it_free(ptr noundef nonnull %10)
  %18 = getelementptr inbounds i8, ptr %9, i64 -64
  store i64 0, ptr %18, align 8
  %19 = getelementptr inbounds i8, ptr %9, i64 -104
  %20 = load ptr, ptr %19, align 8
  %.not.i.i = icmp eq ptr %20, null
  br i1 %.not.i.i, label %spl_filter_it_rewind.exit, label %21

21:                                               ; preds = %17
  %22 = getelementptr inbounds i8, ptr %20, i64 72
  %23 = load ptr, ptr %22, align 8
  %24 = getelementptr inbounds i8, ptr %23, i64 40
  %25 = load ptr, ptr %24, align 8
  %.not7.i.i = icmp eq ptr %25, null
  br i1 %.not7.i.i, label %spl_filter_it_rewind.exit, label %26

26:                                               ; preds = %21
  tail call void %25(ptr noundef nonnull %20) #10
  br label %spl_filter_it_rewind.exit

spl_filter_it_rewind.exit:                        ; preds = %17, %21, %26
  tail call fastcc void @spl_filter_it_fetch(ptr noundef nonnull %3, ptr noundef nonnull %10)
  br label %27

27:                                               ; preds = %spl_filter_it_rewind.exit, %14, %6
  ret void
}